target datalayout = "e-m:e-p270:32:32-p271:32:32-p272:64:64-i64:64-i128:128-f80:128-n8:16:32:64-S128"
target triple = "x86_64-unknown-linux-gnu"

%"class.std::basic_ostream" = type { ptr, %"class.std::basic_ios" }
%"class.std::basic_ios" = type { %"class.std::ios_base", ptr, i8, i8, ptr, ptr, ptr, ptr }
%"class.std::ios_base" = type { ptr, i64, i64, i32, i32, i32, ptr, %"struct.std::ios_base::_Words", [8 x %"struct.std::ios_base::_Words"], i32, ptr, %"class.std::locale" }
%"struct.std::ios_base::_Words" = type { ptr, i64 }
%"class.std::locale" = type { ptr }
%"class.google::protobuf::Message" = type { %"class.google::protobuf::MessageLite" }
%"class.google::protobuf::MessageLite" = type { ptr, %"class.google::protobuf::internal::InternalMetadata" }
%"class.google::protobuf::internal::InternalMetadata" = type { i64 }
%"class.google::protobuf::internal::HasBits" = type { [1 x i32] }
%"class.google::protobuf::internal::CachedSize" = type { i32 }
%"class.google::protobuf::internal::RepeatedPtrFieldBase" = type { ptr, i32, i32, ptr }
%"class.std::__cxx11::basic_string" = type { %"struct.std::__cxx11::basic_string<char>::_Alloc_hider", i64, %union.anon.30 }
%"struct.std::__cxx11::basic_string<char>::_Alloc_hider" = type { ptr }
%union.anon.30 = type { i64, [8 x i8] }
%"struct.google::protobuf::internal::ArenaStringPtr" = type { %"class.google::protobuf::internal::TaggedStringPtr" }
%"class.google::protobuf::internal::TaggedStringPtr" = type { ptr }
%"class.google::protobuf::compiler::CodeGeneratorResponse" = type { %"class.google::protobuf::Message", %union.anon.51 }
%union.anon.51 = type { %"struct.google::protobuf::compiler::CodeGeneratorResponse::Impl_" }
%"struct.google::protobuf::compiler::CodeGeneratorResponse::Impl_" = type { %"class.google::protobuf::internal::HasBits", %"class.google::protobuf::internal::CachedSize", %"class.google::protobuf::RepeatedPtrField.52", %"struct.google::protobuf::internal::ArenaStringPtr", i64, i32, i32 }
%"class.google::protobuf::RepeatedPtrField.52" = type { %"class.google::protobuf::internal::RepeatedPtrFieldBase" }
%"class.google::protobuf::compiler::CodeGeneratorRequest" = type { %"class.google::protobuf::Message", %union.anon.39 }
%union.anon.39 = type { %"struct.google::protobuf::compiler::CodeGeneratorRequest::Impl_" }
%"struct.google::protobuf::compiler::CodeGeneratorRequest::Impl_" = type { %"class.google::protobuf::internal::HasBits", %"class.google::protobuf::internal::CachedSize", %"class.google::protobuf::RepeatedPtrField.40", %"class.google::protobuf::RepeatedPtrField.41", %"class.google::protobuf::RepeatedPtrField.41", %"struct.google::protobuf::internal::ArenaStringPtr", ptr }
%"class.google::protobuf::RepeatedPtrField.40" = type { %"class.google::protobuf::internal::RepeatedPtrFieldBase" }
%"class.google::protobuf::RepeatedPtrField.41" = type { %"class.google::protobuf::internal::RepeatedPtrFieldBase" }

@_ZSt4cerr = external global %"class.std::basic_ostream", align 8
@.str.5 = private unnamed_addr constant [19 x i8] c": Unknown option: \00", align 1
@.str.6 = private unnamed_addr constant [45 x i8] c": protoc sent unparseable request to plugin.\00", align 1
@.str.7 = private unnamed_addr constant [27 x i8] c": Error writing to stdout.\00", align 1
@.str.8 = private unnamed_addr constant [3 x i8] c": \00", align 1

; Function Attrs: mustprogress uwtable
define linkonce_odr hidden void @_ZN6google8protobuf8compiler21CodeGeneratorResponseC2Ev(ptr noundef nonnull align 8 dereferenceable(72) %this) unnamed_addr #4 comdat align 2 {
entry:
  %this.addr = alloca ptr, align 8
  store ptr %this, ptr %this.addr, align 8
  %this1 = load ptr, ptr %this.addr, align 8
  call void @_ZN6google8protobuf8compiler21CodeGeneratorResponseC2EPNS0_5ArenaE(ptr noundef nonnull align 8 dereferenceable(72) %this1, ptr noundef null)
  ret void
}

; Function Attrs: mustprogress uwtable
define linkonce_odr hidden void @_ZN6google8protobuf8compiler20CodeGeneratorRequestC2Ev(ptr noundef nonnull align 8 dereferenceable(112) %this) unnamed_addr #4 comdat align 2 {
entry:
  %this.addr = alloca ptr, align 8
  store ptr %this, ptr %this.addr, align 8
  %this1 = load ptr, ptr %this.addr, align 8
  call void @_ZN6google8protobuf8compiler20CodeGeneratorRequestC2EPNS0_5ArenaE(ptr noundef nonnull align 8 dereferenceable(112) %this1, ptr noundef null)
  ret void
}

; Function Attrs: mustprogress uwtable
define noundef i32 @_ZN6google8protobuf8compiler10PluginMainEiPPcPKNS1_13CodeGeneratorE(i32 noundef %argc, ptr noundef %argv, ptr noundef %generator) #4 personality ptr @__gxx_personality_v0 {
entry:
  %retval = alloca i32, align 4
  %argc.addr = alloca i32, align 4
  %argv.addr = alloca ptr, align 8
  %generator.addr = alloca ptr, align 8
  %request = alloca %"class.google::protobuf::compiler::CodeGeneratorRequest", align 8
  %exn.slot = alloca ptr, align 8
  %ehselector.slot = alloca i32, align 4
  %cleanup.dest.slot = alloca i32, align 4
  %error_msg = alloca %"class.std::__cxx11::basic_string", align 8
  %response = alloca %"class.google::protobuf::compiler::CodeGeneratorResponse", align 8
  store i32 %argc, ptr %argc.addr, align 4
  store ptr %argv, ptr %argv.addr, align 8
  store ptr %generator, ptr %generator.addr, align 8
  %0 = load i32, ptr %argc.addr, align 4
  %cmp = icmp sgt i32 %0, 1
  br i1 %cmp, label %if.then, label %if.end

if.then:                                          ; preds = %entry
  %1 = load ptr, ptr %argv.addr, align 8
  %arrayidx = getelementptr inbounds ptr, ptr %1, i64 0
  %2 = load ptr, ptr %arrayidx, align 8
  %call = call noundef nonnull align 8 dereferenceable(8) ptr @_ZStlsISt11char_traitsIcEERSt13basic_ostreamIcT_ES5_PKc(ptr noundef nonnull align 8 dereferenceable(8) @_ZSt4cerr, ptr noundef %2)
  %call1 = call noundef nonnull align 8 dereferenceable(8) ptr @_ZStlsISt11char_traitsIcEERSt13basic_ostreamIcT_ES5_PKc(ptr noundef nonnull align 8 dereferenceable(8) %call, ptr noundef @.str.5)
  %3 = load ptr, ptr %argv.addr, align 8
  %arrayidx2 = getelementptr inbounds ptr, ptr %3, i64 1
  %4 = load ptr, ptr %arrayidx2, align 8
  %call3 = call noundef nonnull align 8 dereferenceable(8) ptr @_ZStlsISt11char_traitsIcEERSt13basic_ostreamIcT_ES5_PKc(ptr noundef nonnull align 8 dereferenceable(8) %call1, ptr noundef %4)
  %call4 = call noundef nonnull align 8 dereferenceable(8) ptr @_ZNSolsEPFRSoS_E(ptr noundef nonnull align 8 dereferenceable(8) %call3, ptr noundef @_ZSt4endlIcSt11char_traitsIcEERSt13basic_ostreamIT_T0_ES6_)
  store i32 1, ptr %retval, align 4
  br label %return

if.end:                                           ; preds = %entry
  call void @_ZN6google8protobuf8compiler20CodeGeneratorRequestC2Ev(ptr noundef nonnull align 8 dereferenceable(112) %request)
  %call5 = invoke noundef zeroext i1 @_ZN6google8protobuf11MessageLite23ParseFromFileDescriptorEi(ptr noundef nonnull align 8 dereferenceable(16) %request, i32 noundef 0)
          to label %invoke.cont unwind label %lpad

invoke.cont:                                      ; preds = %if.end
  br i1 %call5, label %if.end14, label %if.then6

if.then6:                                         ; preds = %invoke.cont
  %5 = load ptr, ptr %argv.addr, align 8
  %arrayidx7 = getelementptr inbounds ptr, ptr %5, i64 0
  %6 = load ptr, ptr %arrayidx7, align 8
  %call9 = invoke noundef nonnull align 8 dereferenceable(8) ptr @_ZStlsISt11char_traitsIcEERSt13basic_ostreamIcT_ES5_PKc(ptr noundef nonnull align 8 dereferenceable(8) @_ZSt4cerr, ptr noundef %6)
          to label %invoke.cont8 unwind label %lpad

invoke.cont8:                                     ; preds = %if.then6
  %call11 = invoke noundef nonnull align 8 dereferenceable(8) ptr @_ZStlsISt11char_traitsIcEERSt13basic_ostreamIcT_ES5_PKc(ptr noundef nonnull align 8 dereferenceable(8) %call9, ptr noundef @.str.6)
          to label %invoke.cont10 unwind label %lpad

invoke.cont10:                                    ; preds = %invoke.cont8
  %call13 = invoke noundef nonnull align 8 dereferenceable(8) ptr @_ZNSolsEPFRSoS_E(ptr noundef nonnull align 8 dereferenceable(8) %call11, ptr noundef @_ZSt4endlIcSt11char_traitsIcEERSt13basic_ostreamIT_T0_ES6_)
          to label %invoke.cont12 unwind label %lpad

invoke.cont12:                                    ; preds = %invoke.cont10
  store i32 1, ptr %retval, align 4
  store i32 1, ptr %cleanup.dest.slot, align 4
  br label %cleanup46

lpad:                                             ; preds = %invoke.cont10, %invoke.cont8, %if.then6, %if.end
  %7 = landingpad { ptr, i32 }
          cleanup
  %8 = extractvalue { ptr, i32 } %7, 0
  store ptr %8, ptr %exn.slot, align 8
  %9 = extractvalue { ptr, i32 } %7, 1
  store i32 %9, ptr %ehselector.slot, align 4
  br label %ehcleanup47

if.end14:                                         ; preds = %invoke.cont
  call void @_ZNSt7__cxx1112basic_stringIcSt11char_traitsIcESaIcEEC1Ev(ptr noundef nonnull align 8 dereferenceable(32) %error_msg) #3
  invoke void @_ZN6google8protobuf8compiler21CodeGeneratorResponseC2Ev(ptr noundef nonnull align 8 dereferenceable(72) %response)
          to label %invoke.cont16 unwind label %lpad15

invoke.cont16:                                    ; preds = %if.end14
  %10 = load ptr, ptr %generator.addr, align 8
  %call19 = invoke noundef zeroext i1 @_ZN6google8protobuf8compiler12GenerateCodeERKNS1_20CodeGeneratorRequestERKNS1_13CodeGeneratorEPNS1_21CodeGeneratorResponseEPNSt7__cxx1112basic_stringIcSt11char_traitsIcESaIcEEE(ptr noundef nonnull align 8 dereferenceable(112) %request, ptr noundef nonnull align 8 dereferenceable(8) %10, ptr noundef %response, ptr noundef %error_msg)
          to label %invoke.cont18 unwind label %lpad17

invoke.cont18:                                    ; preds = %invoke.cont16
  br i1 %call19, label %if.then20, label %if.else

if.then20:                                        ; preds = %invoke.cont18
  %call22 = invoke noundef zeroext i1 @_ZNK6google8protobuf11MessageLite25SerializeToFileDescriptorEi(ptr noundef nonnull align 8 dereferenceable(16) %response, i32 noundef 1)
          to label %invoke.cont21 unwind label %lpad17

invoke.cont21:                                    ; preds = %if.then20
  br i1 %call22, label %if.end31, label %if.then23

if.then23:                                        ; preds = %invoke.cont21
  %11 = load ptr, ptr %argv.addr, align 8
  %arrayidx24 = getelementptr inbounds ptr, ptr %11, i64 0
  %12 = load ptr, ptr %arrayidx24, align 8
  %call26 = invoke noundef nonnull align 8 dereferenceable(8) ptr @_ZStlsISt11char_traitsIcEERSt13basic_ostreamIcT_ES5_PKc(ptr noundef nonnull align 8 dereferenceable(8) @_ZSt4cerr, ptr noundef %12)
          to label %invoke.cont25 unwind label %lpad17

invoke.cont25:                                    ; preds = %if.then23
  %call28 = invoke noundef nonnull align 8 dereferenceable(8) ptr @_ZStlsISt11char_traitsIcEERSt13basic_ostreamIcT_ES5_PKc(ptr noundef nonnull align 8 dereferenceable(8) %call26, ptr noundef @.str.7)
          to label %invoke.cont27 unwind label %lpad17

invoke.cont27:                                    ; preds = %invoke.cont25
  %call30 = invoke noundef nonnull align 8 dereferenceable(8) ptr @_ZNSolsEPFRSoS_E(ptr noundef nonnull align 8 dereferenceable(8) %call28, ptr noundef @_ZSt4endlIcSt11char_traitsIcEERSt13basic_ostreamIT_T0_ES6_)
          to label %invoke.cont29 unwind label %lpad17

invoke.cont29:                                    ; preds = %invoke.cont27
  store i32 1, ptr %retval, align 4
  store i32 1, ptr %cleanup.dest.slot, align 4
  br label %cleanup

lpad15:                                           ; preds = %if.end14
  %13 = landingpad { ptr, i32 }
          cleanup
  %14 = extractvalue { ptr, i32 } %13, 0
  store ptr %14, ptr %exn.slot, align 8
  %15 = extractvalue { ptr, i32 } %13, 1
  store i32 %15, ptr %ehselector.slot, align 4
  br label %ehcleanup

lpad17:                                           ; preds = %invoke.cont39, %invoke.cont37, %invoke.cont35, %if.then33, %invoke.cont27, %invoke.cont25, %if.then23, %if.then20, %invoke.cont16
  %16 = landingpad { ptr, i32 }
          cleanup
  %17 = extractvalue { ptr, i32 } %16, 0
  store ptr %17, ptr %exn.slot, align 8
  %18 = extractvalue { ptr, i32 } %16, 1
  store i32 %18, ptr %ehselector.slot, align 4
  call void @_ZN6google8protobuf8compiler21CodeGeneratorResponseD1Ev(ptr noundef nonnull align 8 dereferenceable(72) %response) #3
  br label %ehcleanup

if.end31:                                         ; preds = %invoke.cont21
  br label %if.end44

if.else:                                          ; preds = %invoke.cont18
  %call32 = call noundef zeroext i1 @_ZNKSt7__cxx1112basic_stringIcSt11char_traitsIcESaIcEE5emptyEv(ptr noundef nonnull align 8 dereferenceable(32) %error_msg) #3
  br i1 %call32, label %if.end43, label %if.then33

if.then33:                                        ; preds = %if.else
  %19 = load ptr, ptr %argv.addr, align 8
  %arrayidx34 = getelementptr inbounds ptr, ptr %19, i64 0
  %20 = load ptr, ptr %arrayidx34, align 8
  %call36 = invoke noundef nonnull align 8 dereferenceable(8) ptr @_ZStlsISt11char_traitsIcEERSt13basic_ostreamIcT_ES5_PKc(ptr noundef nonnull align 8 dereferenceable(8) @_ZSt4cerr, ptr noundef %20)
          to label %invoke.cont35 unwind label %lpad17

invoke.cont35:                                    ; preds = %if.then33
  %call38 = invoke noundef nonnull align 8 dereferenceable(8) ptr @_ZStlsISt11char_traitsIcEERSt13basic_ostreamIcT_ES5_PKc(ptr noundef nonnull align 8 dereferenceable(8) %call36, ptr noundef @.str.8)
          to label %invoke.cont37 unwind label %lpad17

invoke.cont37:                                    ; preds = %invoke.cont35
  %call40 = invoke noundef nonnull align 8 dereferenceable(8) ptr @_ZStlsIcSt11char_traitsIcESaIcEERSt13basic_ostreamIT_T0_ES7_RKNSt7__cxx1112basic_stringIS4_S5_T1_EE(ptr noundef nonnull align 8 dereferenceable(8) %call38, ptr noundef nonnull align 8 dereferenceable(32) %error_msg)
          to label %invoke.cont39 unwind label %lpad17

invoke.cont39:                                    ; preds = %invoke.cont37
  %call42 = invoke noundef nonnull align 8 dereferenceable(8) ptr @_ZNSolsEPFRSoS_E(ptr noundef nonnull align 8 dereferenceable(8) %call40, ptr noundef @_ZSt4endlIcSt11char_traitsIcEERSt13basic_ostreamIT_T0_ES6_)
          to label %invoke.cont41 unwind label %lpad17

invoke.cont41:                                    ; preds = %invoke.cont39
  br label %if.end43

if.end43:                                         ; preds = %invoke.cont41, %if.else
  store i32 1, ptr %retval, align 4
  store i32 1, ptr %cleanup.dest.slot, align 4
  br label %cleanup

if.end44:                                         ; preds = %if.end31
  store i32 0, ptr %retval, align 4
  store i32 1, ptr %cleanup.dest.slot, align 4
  br label %cleanup

cleanup:                                          ; preds = %if.end44, %if.end43, %invoke.cont29
  call void @_ZN6google8protobuf8compiler21CodeGeneratorResponseD1Ev(ptr noundef nonnull align 8 dereferenceable(72) %response) #3
  call void @_ZNSt7__cxx1112basic_stringIcSt11char_traitsIcESaIcEED1Ev(ptr noundef nonnull align 8 dereferenceable(32) %error_msg) #3
  br label %cleanup46

ehcleanup:                                        ; preds = %lpad17, %lpad15
  call void @_ZNSt7__cxx1112basic_stringIcSt11char_traitsIcESaIcEED1Ev(ptr noundef nonnull align 8 dereferenceable(32) %error_msg) #3
  br label %ehcleanup47

cleanup46:                                        ; preds = %cleanup, %invoke.cont12
  call void @_ZN6google8protobuf8compiler20CodeGeneratorRequestD1Ev(ptr noundef nonnull align 8 dereferenceable(112) %request) #3
  br label %return

ehcleanup47:                                      ; preds = %ehcleanup, %lpad
  call void @_ZN6google8protobuf8compiler20CodeGeneratorRequestD1Ev(ptr noundef nonnull align 8 dereferenceable(112) %request) #3
  br label %eh.resume

return:                                           ; preds = %cleanup46, %if.then
  %21 = load i32, ptr %retval, align 4
  ret i32 %21

eh.resume:                                        ; preds = %ehcleanup47
  %exn = load ptr, ptr %exn.slot, align 8
  %sel = load i32, ptr %ehselector.slot, align 4
  %lpad.val = insertvalue { ptr, i32 } poison, ptr %exn, 0
  %lpad.val48 = insertvalue { ptr, i32 } %lpad.val, i32 %sel, 1
  resume { ptr, i32 } %lpad.val48
}