; Function Attrs: mustprogress uwtable
define noundef i32 @_ZN6google8protobuf8compiler10PluginMainEiPPcPKNS1_13CodeGeneratorE(i32 noundef %argc, ptr nocapture noundef readonly %argv, ptr noundef %generator) local_unnamed_addr #3 personality ptr @__gxx_personality_v0 {
entry:
  %request = alloca %"class.google::protobuf::compiler::CodeGeneratorRequest", align 8
  %error_msg = alloca %"class.std::__cxx11::basic_string", align 8
  %response = alloca %"class.google::protobuf::compiler::CodeGeneratorResponse", align 8
  %cmp = icmp sgt i32 %argc, 1
  br i1 %cmp, label %if.then, label %if.end

if.then:                                          ; preds = %entry
  %0 = load ptr, ptr %argv, align 8
  %call = tail call noundef nonnull align 8 dereferenceable(8) ptr @_ZStlsISt11char_traitsIcEERSt13basic_ostreamIcT_ES5_PKc(ptr noundef nonnull align 8 dereferenceable(8) @_ZSt4cerr, ptr noundef %0)
  %call1 = tail call noundef nonnull align 8 dereferenceable(8) ptr @_ZStlsISt11char_traitsIcEERSt13basic_ostreamIcT_ES5_PKc(ptr noundef nonnull align 8 dereferenceable(8) %call, ptr noundef nonnull @.str.5)
  %arrayidx2 = getelementptr inbounds i8, ptr %argv, i64 8
  %1 = load ptr, ptr %arrayidx2, align 8
  %call3 = tail call noundef nonnull align 8 dereferenceable(8) ptr @_ZStlsISt11char_traitsIcEERSt13basic_ostreamIcT_ES5_PKc(ptr noundef nonnull align 8 dereferenceable(8) %call1, ptr noundef %1)
  %call4 = tail call noundef nonnull align 8 dereferenceable(8) ptr @_ZNSolsEPFRSoS_E(ptr noundef nonnull align 8 dereferenceable(8) %call3, ptr noundef nonnull @_ZSt4endlIcSt11char_traitsIcEERSt13basic_ostreamIT_T0_ES6_)
  br label %return

if.end:                                           ; preds = %entry
  call void @_ZN6google8protobuf8compiler20CodeGeneratorRequestC2EPNS0_5ArenaE(ptr noundef nonnull align 8 dereferenceable(112) %request, ptr noundef null)
  %call5 = invoke noundef zeroext i1 @_ZN6google8protobuf11MessageLite23ParseFromFileDescriptorEi(ptr noundef nonnull align 8 dereferenceable(16) %request, i32 noundef 0)
          to label %invoke.cont unwind label %lpad

invoke.cont:                                      ; preds = %if.end
  br i1 %call5, label %if.end14, label %if.then6

if.then6:                                         ; preds = %invoke.cont
  %2 = load ptr, ptr %argv, align 8
  %call9 = invoke noundef nonnull align 8 dereferenceable(8) ptr @_ZStlsISt11char_traitsIcEERSt13basic_ostreamIcT_ES5_PKc(ptr noundef nonnull align 8 dereferenceable(8) @_ZSt4cerr, ptr noundef %2)
          to label %invoke.cont8 unwind label %lpad

invoke.cont8:                                     ; preds = %if.then6
  %call11 = invoke noundef nonnull align 8 dereferenceable(8) ptr @_ZStlsISt11char_traitsIcEERSt13basic_ostreamIcT_ES5_PKc(ptr noundef nonnull align 8 dereferenceable(8) %call9, ptr noundef nonnull @.str.6)
          to label %invoke.cont10 unwind label %lpad

invoke.cont10:                                    ; preds = %invoke.cont8
  %call13 = invoke noundef nonnull align 8 dereferenceable(8) ptr @_ZNSolsEPFRSoS_E(ptr noundef nonnull align 8 dereferenceable(8) %call11, ptr noundef nonnull @_ZSt4endlIcSt11char_traitsIcEERSt13basic_ostreamIT_T0_ES6_)
          to label %cleanup46 unwind label %lpad

lpad:                                             ; preds = %invoke.cont10, %invoke.cont8, %if.then6, %if.end
  %3 = landingpad { ptr, i32 }
          cleanup
  br label %ehcleanup47

if.end14:                                         ; preds = %invoke.cont
  call void @_ZNSt7__cxx1112basic_stringIcSt11char_traitsIcESaIcEEC1Ev(ptr noundef nonnull align 8 dereferenceable(32) %error_msg) #16
  invoke void @_ZN6google8protobuf8compiler21CodeGeneratorResponseC2EPNS0_5ArenaE(ptr noundef nonnull align 8 dereferenceable(72) %response, ptr noundef null)
          to label %invoke.cont16 unwind label %lpad15

invoke.cont16:                                    ; preds = %if.end14
  %call19 = invoke noundef zeroext i1 @_ZN6google8protobuf8compiler12GenerateCodeERKNS1_20CodeGeneratorRequestERKNS1_13CodeGeneratorEPNS1_21CodeGeneratorResponseEPNSt7__cxx1112basic_stringIcSt11char_traitsIcESaIcEEE(ptr noundef nonnull align 8 dereferenceable(112) %request, ptr noundef nonnull align 8 dereferenceable(8) %generator, ptr noundef nonnull %response, ptr noundef nonnull %error_msg)
          to label %invoke.cont18 unwind label %lpad17

invoke.cont18:                                    ; preds = %invoke.cont16
  br i1 %call19, label %if.then20, label %if.else

if.then20:                                        ; preds = %invoke.cont18
  %call22 = invoke noundef zeroext i1 @_ZNK6google8protobuf11MessageLite25SerializeToFileDescriptorEi(ptr noundef nonnull align 8 dereferenceable(16) %response, i32 noundef 1)
          to label %invoke.cont21 unwind label %lpad17

invoke.cont21:                                    ; preds = %if.then20
  br i1 %call22, label %cleanup, label %if.then23

if.then23:                                        ; preds = %invoke.cont21
  %4 = load ptr, ptr %argv, align 8
  %call26 = invoke noundef nonnull align 8 dereferenceable(8) ptr @_ZStlsISt11char_traitsIcEERSt13basic_ostreamIcT_ES5_PKc(ptr noundef nonnull align 8 dereferenceable(8) @_ZSt4cerr, ptr noundef %4)
          to label %invoke.cont25 unwind label %lpad17

invoke.cont25:                                    ; preds = %if.then23
  %call28 = invoke noundef nonnull align 8 dereferenceable(8) ptr @_ZStlsISt11char_traitsIcEERSt13basic_ostreamIcT_ES5_PKc(ptr noundef nonnull align 8 dereferenceable(8) %call26, ptr noundef nonnull @.str.7)
          to label %invoke.cont39.invoke unwind label %lpad17

lpad15:                                           ; preds = %if.end14
  %5 = landingpad { ptr, i32 }
          cleanup
  br label %ehcleanup

lpad17:                                           ; preds = %invoke.cont39.invoke, %invoke.cont37, %invoke.cont35, %if.then33, %invoke.cont25, %if.then23, %if.then20, %invoke.cont16
  %6 = landingpad { ptr, i32 }
          cleanup
  call void @_ZN6google8protobuf8compiler21CodeGeneratorResponseD1Ev(ptr noundef nonnull align 8 dereferenceable(72) %response) #16
  br label %ehcleanup

if.else:                                          ; preds = %invoke.cont18
  %call32 = call noundef zeroext i1 @_ZNKSt7__cxx1112basic_stringIcSt11char_traitsIcESaIcEE5emptyEv(ptr noundef nonnull align 8 dereferenceable(32) %error_msg) #16
  br i1 %call32, label %cleanup, label %if.then33

if.then33:                                        ; preds = %if.else
  %7 = load ptr, ptr %argv, align 8
  %call36 = invoke noundef nonnull align 8 dereferenceable(8) ptr @_ZStlsISt11char_traitsIcEERSt13basic_ostreamIcT_ES5_PKc(ptr noundef nonnull align 8 dereferenceable(8) @_ZSt4cerr, ptr noundef %7)
          to label %invoke.cont35 unwind label %lpad17

invoke.cont35:                                    ; preds = %if.then33
  %call38 = invoke noundef nonnull align 8 dereferenceable(8) ptr @_ZStlsISt11char_traitsIcEERSt13basic_ostreamIcT_ES5_PKc(ptr noundef nonnull align 8 dereferenceable(8) %call36, ptr noundef nonnull @.str.8)
          to label %invoke.cont37 unwind label %lpad17

invoke.cont37:                                    ; preds = %invoke.cont35
  %call40 = invoke noundef nonnull align 8 dereferenceable(8) ptr @_ZStlsIcSt11char_traitsIcESaIcEERSt13basic_ostreamIT_T0_ES7_RKNSt7__cxx1112basic_stringIS4_S5_T1_EE(ptr noundef nonnull align 8 dereferenceable(8) %call38, ptr noundef nonnull align 8 dereferenceable(32) %error_msg)
          to label %invoke.cont39.invoke unwind label %lpad17

invoke.cont39.invoke:                             ; preds = %invoke.cont25, %invoke.cont37
  %8 = phi ptr [ %call40, %invoke.cont37 ], [ %call28, %invoke.cont25 ]
  %9 = invoke noundef nonnull align 8 dereferenceable(8) ptr @_ZNSolsEPFRSoS_E(ptr noundef nonnull align 8 dereferenceable(8) %8, ptr noundef nonnull @_ZSt4endlIcSt11char_traitsIcEERSt13basic_ostreamIT_T0_ES6_)
          to label %cleanup unwind label %lpad17

cleanup:                                          ; preds = %invoke.cont39.invoke, %invoke.cont21, %if.else
  %retval.0 = phi i32 [ 1, %if.else ], [ 0, %invoke.cont21 ], [ 1, %invoke.cont39.invoke ]
  call void @_ZN6google8protobuf8compiler21CodeGeneratorResponseD1Ev(ptr noundef nonnull align 8 dereferenceable(72) %response) #16
  call void @_ZNSt7__cxx1112basic_stringIcSt11char_traitsIcESaIcEED1Ev(ptr noundef nonnull align 8 dereferenceable(32) %error_msg) #16
  br label %cleanup46

ehcleanup:                                        ; preds = %lpad17, %lpad15
  %.pn = phi { ptr, i32 } [ %6, %lpad17 ], [ %5, %lpad15 ]
  call void @_ZNSt7__cxx1112basic_stringIcSt11char_traitsIcESaIcEED1Ev(ptr noundef nonnull align 8 dereferenceable(32) %error_msg) #16
  br label %ehcleanup47

cleanup46:                                        ; preds = %invoke.cont10, %cleanup
  %retval.1 = phi i32 [ %retval.0, %cleanup ], [ 1, %invoke.cont10 ]
  call void @_ZN6google8protobuf8compiler20CodeGeneratorRequestD1Ev(ptr noundef nonnull align 8 dereferenceable(112) %request) #16
  br label %return

ehcleanup47:                                      ; preds = %ehcleanup, %lpad
  %.pn.pn = phi { ptr, i32 } [ %.pn, %ehcleanup ], [ %3, %lpad ]
  call void @_ZN6google8protobuf8compiler20CodeGeneratorRequestD1Ev(ptr noundef nonnull align 8 dereferenceable(112) %request) #16
  resume { ptr, i32 } %.pn.pn

return:                                           ; preds = %cleanup46, %if.then
  %retval.2 = phi i32 [ 1, %if.then ], [ %retval.1, %cleanup46 ]
  ret i32 %retval.2
}